target datalayout = "e-m:e-p270:32:32-p271:32:32-p272:64:64-i64:64-i128:128-f80:128-n8:16:32:64-S128"
target triple = "x86_64-pc-linux-gnu"

; Function Attrs: mustprogress uwtable
define dso_local void @_ZN16StatementArrayOp21make_random_iter_ctrlEiRiS0_(i32 noundef %0, ptr noundef nonnull align 4 dereferenceable(4) %1, ptr noundef nonnull align 4 dereferenceable(4) %2) #4 align 2 {
  %4 = alloca i32, align 4
  %5 = alloca ptr, align 8
  %6 = alloca ptr, align 8
  store i32 %0, ptr %4, align 4, !tbaa !4
  store ptr %1, ptr %5, align 8, !tbaa !8
  store ptr %2, ptr %6, align 8, !tbaa !8
  %7 = call noundef zeroext i1 @_Z17pure_rnd_flipcoinjPK6FilterPKNSt7__cxx1112basic_stringIcSt11char_traitsIcESaIcEEE(i32 noundef 50, ptr noundef null, ptr noundef null)
  br i1 %7, label %8, label %9

8:                                                ; preds = %3
  br label %12

9:                                                ; preds = %3
  %10 = load i32, ptr %4, align 4, !tbaa !4
  %11 = call noundef i32 @_Z13pure_rnd_uptojPK6FilterPKNSt7__cxx1112basic_stringIcSt11char_traitsIcESaIcEEE(i32 noundef %10, ptr noundef null, ptr noundef null)
  br label %12

12:                                               ; preds = %9, %8
  %13 = phi i32 [ 0, %8 ], [ %11, %9 ]
  %14 = load ptr, ptr %5, align 8, !tbaa !8
  store i32 %13, ptr %14, align 4, !tbaa !4
  %15 = call noundef zeroext i1 @_Z17pure_rnd_flipcoinjPK6FilterPKNSt7__cxx1112basic_stringIcSt11char_traitsIcESaIcEEE(i32 noundef 50, ptr noundef null, ptr noundef null)
  br i1 %15, label %16, label %17

16:                                               ; preds = %12
  br label %21

17:                                               ; preds = %12
  %18 = load i32, ptr %4, align 4, !tbaa !4
  %19 = call noundef i32 @_Z13pure_rnd_uptojPK6FilterPKNSt7__cxx1112basic_stringIcSt11char_traitsIcESaIcEEE(i32 noundef %18, ptr noundef null, ptr noundef null)
  %20 = add i32 %19, 1
  br label %21

21:                                               ; preds = %17, %16
  %22 = phi i32 [ 1, %16 ], [ %20, %17 ]
  %23 = load ptr, ptr %6, align 8, !tbaa !8
  store i32 %22, ptr %23, align 4, !tbaa !4
  ret void
}