; Function Attrs: mustprogress uwtable
define dso_local void @_ZN16StatementArrayOp21make_random_iter_ctrlEiRiS0_(i32 noundef %0, ptr noundef nonnull writeonly align 4 captures(none) dereferenceable(4) initializes((0, 4)) %1, ptr noundef nonnull writeonly align 4 captures(none) dereferenceable(4) initializes((0, 4)) %2) local_unnamed_addr #3 align 2 {
  %4 = tail call noundef zeroext i1 @_Z17pure_rnd_flipcoinjPK6FilterPKNSt7__cxx1112basic_stringIcSt11char_traitsIcESaIcEEE(i32 noundef 50, ptr noundef null, ptr noundef null)
  br i1 %4, label %7, label %5

5:                                                ; preds = %3
  %6 = tail call noundef i32 @_Z13pure_rnd_uptojPK6FilterPKNSt7__cxx1112basic_stringIcSt11char_traitsIcESaIcEEE(i32 noundef %0, ptr noundef null, ptr noundef null)
  br label %7

7:                                                ; preds = %3, %5
  %8 = phi i32 [ %6, %5 ], [ 0, %3 ]
  store i32 %8, ptr %1, align 4, !tbaa !4
  %9 = tail call noundef zeroext i1 @_Z17pure_rnd_flipcoinjPK6FilterPKNSt7__cxx1112basic_stringIcSt11char_traitsIcESaIcEEE(i32 noundef 50, ptr noundef null, ptr noundef null)
  br i1 %9, label %13, label %10

10:                                               ; preds = %7
  %11 = tail call noundef i32 @_Z13pure_rnd_uptojPK6FilterPKNSt7__cxx1112basic_stringIcSt11char_traitsIcESaIcEEE(i32 noundef %0, ptr noundef null, ptr noundef null)
  %12 = add i32 %11, 1
  br label %13

13:                                               ; preds = %7, %10
  %14 = phi i32 [ %12, %10 ], [ 1, %7 ]
  store i32 %14, ptr %2, align 4, !tbaa !4
  ret void
}